; Function Attrs: mustprogress uwtable
define dso_local void @_ZN5cmsys31SystemInformationImplementation11TrimNewlineERNSt7__cxx1112basic_stringIcSt11char_traitsIcESaIcEEE(ptr noundef nonnull readnone align 8 captures(none) dereferenceable(457) %0, ptr noundef nonnull align 8 dereferenceable(32) %1) local_unnamed_addr #3 align 2 {
  %3 = tail call noundef i64 @_ZNKSt7__cxx1112basic_stringIcSt11char_traitsIcESaIcEE4findEcm(ptr noundef nonnull align 8 dereferenceable(32) %1, i8 noundef signext 13, i64 noundef 0) #34
  %.not15 = icmp eq i64 %3, -1
  br i1 %.not15, label %.preheader, label %.lr.ph

.lr.ph:                                           ; preds = %2
  %4 = getelementptr inbounds nuw i8, ptr %1, i64 8
  br label %7

.preheader:                                       ; preds = %_ZNSt7__cxx1112basic_stringIcSt11char_traitsIcESaIcEE5eraseEmm.exit, %2
  %5 = tail call noundef i64 @_ZNKSt7__cxx1112basic_stringIcSt11char_traitsIcESaIcEE4findEcm(ptr noundef nonnull align 8 dereferenceable(32) %1, i8 noundef signext 10, i64 noundef 0) #34
  %.not916 = icmp eq i64 %5, -1
  br i1 %.not916, label %._crit_edge, label %.lr.ph17

.lr.ph17:                                         ; preds = %.preheader
  %6 = getelementptr inbounds nuw i8, ptr %1, i64 8
  br label %15

7:                                                ; preds = %.lr.ph, %_ZNSt7__cxx1112basic_stringIcSt11char_traitsIcESaIcEE5eraseEmm.exit
  %8 = phi i64 [ %3, %.lr.ph ], [ %14, %_ZNSt7__cxx1112basic_stringIcSt11char_traitsIcESaIcEE5eraseEmm.exit ]
  %9 = load i64, ptr %4, align 8, !tbaa !15
  %10 = icmp ugt i64 %8, %9
  br i1 %10, label %11, label %_ZNSt7__cxx1112basic_stringIcSt11char_traitsIcESaIcEE5eraseEmm.exit

11:                                               ; preds = %7
  tail call void (ptr, ...) @_ZSt24__throw_out_of_range_fmtPKcz(ptr noundef nonnull @.str.257, ptr noundef nonnull @.str.258, i64 noundef %8, i64 noundef %9) #35
  unreachable

_ZNSt7__cxx1112basic_stringIcSt11char_traitsIcESaIcEE5eraseEmm.exit: ; preds = %7
  store i64 %8, ptr %4, align 8, !tbaa !15
  %12 = load ptr, ptr %1, align 8, !tbaa !10
  %13 = getelementptr inbounds nuw i8, ptr %12, i64 %8
  store i8 0, ptr %13, align 1, !tbaa !16
  %14 = tail call noundef i64 @_ZNKSt7__cxx1112basic_stringIcSt11char_traitsIcESaIcEE4findEcm(ptr noundef nonnull align 8 dereferenceable(32) %1, i8 noundef signext 13, i64 noundef %8) #34
  %.not = icmp eq i64 %14, -1
  br i1 %.not, label %.preheader, label %7, !llvm.loop !266

15:                                               ; preds = %.lr.ph17, %_ZNSt7__cxx1112basic_stringIcSt11char_traitsIcESaIcEE5eraseEmm.exit10
  %16 = phi i64 [ %5, %.lr.ph17 ], [ %22, %_ZNSt7__cxx1112basic_stringIcSt11char_traitsIcESaIcEE5eraseEmm.exit10 ]
  %17 = load i64, ptr %6, align 8, !tbaa !15
  %18 = icmp ugt i64 %16, %17
  br i1 %18, label %19, label %_ZNSt7__cxx1112basic_stringIcSt11char_traitsIcESaIcEE5eraseEmm.exit10

19:                                               ; preds = %15
  tail call void (ptr, ...) @_ZSt24__throw_out_of_range_fmtPKcz(ptr noundef nonnull @.str.257, ptr noundef nonnull @.str.258, i64 noundef %16, i64 noundef %17) #35
  unreachable

_ZNSt7__cxx1112basic_stringIcSt11char_traitsIcESaIcEE5eraseEmm.exit10: ; preds = %15
  store i64 %16, ptr %6, align 8, !tbaa !15
  %20 = load ptr, ptr %1, align 8, !tbaa !10
  %21 = getelementptr inbounds nuw i8, ptr %20, i64 %16
  store i8 0, ptr %21, align 1, !tbaa !16
  %22 = tail call noundef i64 @_ZNKSt7__cxx1112basic_stringIcSt11char_traitsIcESaIcEE4findEcm(ptr noundef nonnull align 8 dereferenceable(32) %1, i8 noundef signext 10, i64 noundef %16) #34
  %.not9 = icmp eq i64 %22, -1
  br i1 %.not9, label %._crit_edge, label %15, !llvm.loop !267

._crit_edge:                                      ; preds = %_ZNSt7__cxx1112basic_stringIcSt11char_traitsIcESaIcEE5eraseEmm.exit10, %.preheader
  ret void
}